Certificate:
    Data:
        Version: 3 (0x2)
        Serial Number:
            3f:14:67:2d:21:9a:35:99:1c:ab:b9:48:8c:01:ec:a2
        Signature Algorithm: sha256WithRSAEncryption
        Issuer: CN=Easy-RSA CA
        Validity
            Not Before: Jan 10 15:11:57 2026 GMT
            Not After : Apr 14 15:11:57 2028 GMT
        Subject: CN=server
        Subject Public Key Info:
            Public Key Algorithm: rsaEncryption
                Public-Key: (2048 bit)
                Modulus:
                    00:d2:97:55:1a:5b:0d:0d:91:51:a9:a1:2f:9d:7b:
                    0f:6d:c9:53:67:ed:1b:24:19:27:64:bf:59:ad:c7:
                    7b:1c:42:d7:c7:46:63:64:f6:de:2e:4b:a7:3e:51:
                    47:c3:7a:66:95:9c:52:d8:3c:ee:fe:94:93:2d:d6:
                    ad:24:6e:40:0c:a7:e4:af:7b:db:3c:88:0e:e8:8f:
                    ed:d2:0b:de:ff:c7:53:34:66:67:a8:e6:83:a6:bb:
                    06:85:e9:54:ee:1a:5b:0e:c0:c6:c5:6e:64:6e:04:
                    51:39:0e:c4:97:0e:d7:57:84:6b:f1:2d:01:dc:79:
                    c5:a9:14:a8:6e:eb:bf:fd:d6:dd:b5:75:ab:f3:59:
                    8b:be:7c:37:d3:a3:df:b9:31:da:c4:78:25:da:3f:
                    7c:06:e3:f3:fa:e9:a8:07:e6:09:15:53:4c:c0:ac:
                    b3:73:ba:a5:f5:a9:a8:58:26:a8:01:54:a1:72:ef:
                    a7:2c:47:a7:3f:81:9f:b7:67:d0:d9:6a:eb:0f:78:
                    ee:c4:82:25:d2:97:e3:6a:1e:a7:a6:16:89:02:81:
                    7c:24:74:15:76:a2:12:43:4b:5b:36:dd:c5:a8:e3:
                    67:81:47:df:fe:a8:6f:76:29:a4:6c:79:84:1a:83:
                    2e:14:78:d6:76:b0:06:e9:29:5d:04:b3:e2:f6:e7:
                    78:97
                Exponent: 65537 (0x10001)
        X509v3 extensions:
            X509v3 Basic Constraints: 
                CA:FALSE
            X509v3 Subject Key Identifier: 
                39:00:43:8F:3C:D3:1D:4D:07:CD:AD:70:DC:66:CC:A4:EA:B5:4C:F6
            X509v3 Authority Key Identifier: 
                keyid:42:BE:45:9C:92:0A:4F:1E:FC:12:6F:2C:1A:84:14:B8:ED:88:71:16
                DirName:/CN=Easy-RSA CA
                serial:02:B4:D7:E6:BA:0E:C3:B4:3A:98:59:A1:44:26:81:00:27:3C:D5:AC
            X509v3 Extended Key Usage: 
                TLS Web Server Authentication
            X509v3 Key Usage: 
                Digital Signature, Key Encipherment
            X509v3 Subject Alternative Name: 
                DNS:server
    Signature Algorithm: sha256WithRSAEncryption
    Signature Value:
        b6:f1:fa:a2:71:6d:07:8c:16:a3:c5:77:ca:f3:00:e2:71:ce:
        9d:ea:d4:cb:c0:54:b4:75:c4:6b:df:c1:c0:b6:09:7c:c7:6f:
        80:30:84:86:ff:60:ea:d3:84:4a:9c:46:2f:79:cc:37:a0:a0:
        e9:8a:90:17:aa:bf:18:6b:db:c5:a3:b3:07:82:5b:67:05:21:
        18:1a:48:4c:91:0d:f1:9e:dd:ea:6e:fa:a9:49:43:08:b2:46:
        6f:ca:11:85:78:08:75:c3:9f:a9:f1:39:60:1d:81:c5:bf:67:
        46:ee:9b:74:f4:99:c8:d6:bb:23:2b:8d:73:42:79:09:94:57:
        42:6c:8e:ca:cf:55:4e:e6:c7:a2:1b:1d:e3:76:93:5e:69:30:
        c0:96:eb:b5:fc:96:e1:fa:a7:2c:f8:e5:07:5e:a2:08:4b:b3:
        53:27:70:f7:dd:71:89:66:67:e4:a8:78:b5:d0:46:41:40:b8:
        82:8c:d9:f9:df:8a:83:20:c8:c3:a5:42:0c:04:91:68:53:76:
        c8:61:96:e7:95:83:dc:0b:7a:d4:24:a6:78:89:d9:4a:26:92:
        e8:09:e7:fe:84:56:ad:2b:e9:e4:50:44:37:b2:d6:4f:1a:3d:
        63:9c:5e:05:90:15:ea:45:8e:89:44:bd:26:86:40:34:05:ff:
        ce:dd:5d:a9
-----BEGIN CERTIFICATE-----
MIIDZzCCAk+gAwIBAgIQPxRnLSGaNZkcq7lIjAHsojANBgkqhkiG9w0BAQsFADAW
MRQwEgYDVQQDDAtFYXN5LVJTQSBDQTAeFw0yNjAxMTAxNTExNTdaFw0yODA0MTQx
NTExNTdaMBExDzANBgNVBAMMBnNlcnZlcjCCASIwDQYJKoZIhvcNAQEBBQADggEP
ADCCAQoCggEBANKXVRpbDQ2RUamhL517D23JU2ftGyQZJ2S/Wa3HexxC18dGY2T2
3i5Lpz5RR8N6ZpWcUtg87v6Uky3WrSRuQAyn5K972zyIDuiP7dIL3v/HUzRmZ6jm
g6a7BoXpVO4aWw7AxsVuZG4EUTkOxJcO11eEa/EtAdx5xakUqG7rv/3W3bV1q/NZ
i758N9Oj37kx2sR4Jdo/fAbj8/rpqAfmCRVTTMCss3O6pfWpqFgmqAFUoXLvpyxH
pz+Bn7dn0Nlq6w947sSCJdKX42oep6YWiQKBfCR0FXaiEkNLWzbdxajjZ4FH3/6o
b3YppGx5hBqDLhR41nawBukpXQSz4vbneJcCAwEAAaOBtTCBsjAJBgNVHRMEAjAA
MB0GA1UdDgQWBBQ5AEOPPNMdTQfNrXDcZsyk6rVM9jBRBgNVHSMESjBIgBRCvkWc
kgpPHvwSbywahBS47YhxFqEapBgwFjEUMBIGA1UEAwwLRWFzeS1SU0EgQ0GCFAK0
1+a6DsO0OphZoUQmgQAnPNWsMBMGA1UdJQQMMAoGCCsGAQUFBwMBMAsGA1UdDwQE
AwIFoDARBgNVHREECjAIggZzZXJ2ZXIwDQYJKoZIhvcNAQELBQADggEBALbx+qJx
bQeMFqPFd8rzAOJxzp3q1MvAVLR1xGvfwcC2CXzHb4AwhIb/YOrThEqcRi95zDeg
oOmKkBeqvxhr28WjsweCW2cFIRgaSEyRDfGe3epu+qlJQwiyRm/KEYV4CHXDn6nx
OWAdgcW/Z0bum3T0mcjWuyMrjXNCeQmUV0JsjsrPVU7mx6IbHeN2k15pMMCW67X8
luH6pyz45QdeoghLs1MncPfdcYlmZ+SoeLXQRkFAuIKM2fnfioMgyMOlQgwEkWhT
dshhlueVg9wLetQkpniJ2UomkugJ5/6EVq0r6eRQRDey1k8aPWOcXgWQFepFjolE
vSaGQDQF/87dXak=
-----END CERTIFICATE-----
