Certificate:
    Data:
        Version: 3 (0x2)
        Serial Number:
            65:77:5c:fe:f5:da:57:03:75:38:ed:05:b3:43:ec:1a
        Signature Algorithm: sha256WithRSAEncryption
        Issuer: CN=Easy-RSA CA
        Validity
            Not Before: Jan 10 15:13:07 2026 GMT
            Not After : Apr 14 15:13:07 2028 GMT
        Subject: CN=central-server
        Subject Public Key Info:
            Public Key Algorithm: rsaEncryption
                Public-Key: (2048 bit)
                Modulus:
                    00:ba:7d:2a:74:82:ed:0b:4f:5c:27:25:56:64:36:
                    c4:35:83:90:18:f3:6f:14:33:06:9a:6b:0f:72:75:
                    1c:1d:49:cc:b7:bc:8c:53:4d:ad:97:79:0f:52:ab:
                    9c:48:52:94:67:0e:ae:31:a5:34:3d:77:b0:8b:64:
                    c6:52:18:1c:e8:49:c3:14:bf:28:b9:c7:f8:90:81:
                    71:0b:47:64:01:b5:76:e6:16:be:64:89:13:d5:8b:
                    1e:e1:56:bd:ad:c9:d6:c0:13:7a:ec:9c:85:75:26:
                    d3:6e:12:3a:dd:e1:d0:19:47:e0:db:7b:94:ed:fe:
                    45:da:c9:cb:4c:8c:c7:c2:56:ac:d3:5c:10:dc:02:
                    2b:93:fa:71:92:fd:5d:b6:a5:a2:e3:c0:56:d0:f4:
                    7a:02:d3:f0:f8:c0:2a:7f:df:1f:90:b4:03:e4:ef:
                    69:6b:f4:4e:1d:7f:d4:0a:3d:96:0d:4e:e0:bb:b0:
                    47:35:d9:93:9c:c1:ce:64:60:e7:5e:8f:6c:0e:80:
                    6b:3d:1d:54:a0:d2:57:0b:0f:98:62:ef:34:3d:b7:
                    c9:26:7c:90:a9:0e:16:49:f8:19:f4:3d:e9:f9:a9:
                    fd:ea:20:22:0f:7a:a5:cf:3c:5b:a9:33:71:36:39:
                    d4:e1:ce:42:39:96:8a:94:cd:a0:a7:f3:96:ce:8a:
                    25:79
                Exponent: 65537 (0x10001)
        X509v3 extensions:
            X509v3 Basic Constraints: 
                CA:FALSE
            X509v3 Subject Key Identifier: 
                25:61:2F:85:F6:3E:38:D1:89:61:DB:64:44:00:4D:91:3C:4D:B2:26
            X509v3 Authority Key Identifier: 
                keyid:42:BE:45:9C:92:0A:4F:1E:FC:12:6F:2C:1A:84:14:B8:ED:88:71:16
                DirName:/CN=Easy-RSA CA
                serial:02:B4:D7:E6:BA:0E:C3:B4:3A:98:59:A1:44:26:81:00:27:3C:D5:AC
            X509v3 Extended Key Usage: 
                TLS Web Client Authentication
            X509v3 Key Usage: 
                Digital Signature
    Signature Algorithm: sha256WithRSAEncryption
    Signature Value:
        6b:75:3f:a2:dc:33:9a:fa:96:3d:de:b5:94:e0:76:e2:29:6e:
        d0:fe:52:28:4b:d8:6a:ea:86:15:29:04:56:32:e0:d3:7b:18:
        7a:b8:fd:23:d0:36:c9:fd:2e:36:9d:26:dd:3e:fb:03:26:8e:
        2e:4a:69:78:0a:64:51:f2:95:39:ea:61:de:0e:7e:9a:00:f7:
        85:7e:1b:c6:9f:f1:57:d3:9c:1b:90:a5:c8:36:80:5c:5f:f4:
        19:7e:70:5b:f4:d9:f4:5b:bd:e8:f5:b9:5a:a7:7a:5f:cd:4f:
        f9:b0:a3:a2:ed:8a:dc:f0:1c:19:85:17:d3:f8:50:30:f8:dd:
        4c:7b:6c:6a:11:46:c1:48:27:53:f0:18:33:78:92:be:e1:e0:
        66:7a:2f:80:d1:b9:32:6f:d2:9f:ec:c9:fb:b1:35:27:4f:0e:
        81:27:69:63:6a:8d:ac:af:c5:40:7b:5a:22:05:61:20:50:dd:
        8f:d6:13:14:26:09:8a:e0:c0:c5:87:24:21:b1:ca:39:25:24:
        d6:f9:22:ce:e7:2b:07:dc:03:ef:4c:6d:58:8e:0c:8f:ef:e6:
        d9:6d:08:6a:56:87:39:91:de:8b:d7:c8:07:13:88:cb:e9:66:
        ee:f5:d9:06:ae:bc:9e:02:4b:57:25:80:a6:bc:94:27:6e:eb:
        6a:ef:65:01
-----BEGIN CERTIFICATE-----
MIIDXDCCAkSgAwIBAgIQZXdc/vXaVwN1OO0Fs0PsGjANBgkqhkiG9w0BAQsFADAW
MRQwEgYDVQQDDAtFYXN5LVJTQSBDQTAeFw0yNjAxMTAxNTEzMDdaFw0yODA0MTQx
NTEzMDdaMBkxFzAVBgNVBAMMDmNlbnRyYWwtc2VydmVyMIIBIjANBgkqhkiG9w0B
AQEFAAOCAQ8AMIIBCgKCAQEAun0qdILtC09cJyVWZDbENYOQGPNvFDMGmmsPcnUc
HUnMt7yMU02tl3kPUqucSFKUZw6uMaU0PXewi2TGUhgc6EnDFL8oucf4kIFxC0dk
AbV25ha+ZIkT1Yse4Va9rcnWwBN67JyFdSbTbhI63eHQGUfg23uU7f5F2snLTIzH
wlas01wQ3AIrk/pxkv1dtqWi48BW0PR6AtPw+MAqf98fkLQD5O9pa/ROHX/UCj2W
DU7gu7BHNdmTnMHOZGDnXo9sDoBrPR1UoNJXCw+YYu80PbfJJnyQqQ4WSfgZ9D3p
+an96iAiD3qlzzxbqTNxNjnU4c5COZaKlM2gp/OWzooleQIDAQABo4GiMIGfMAkG
A1UdEwQCMAAwHQYDVR0OBBYEFCVhL4X2PjjRiWHbZEQATZE8TbImMFEGA1UdIwRK
MEiAFEK+RZySCk8e/BJvLBqEFLjtiHEWoRqkGDAWMRQwEgYDVQQDDAtFYXN5LVJT
QSBDQYIUArTX5roOw7Q6mFmhRCaBACc81awwEwYDVR0lBAwwCgYIKwYBBQUHAwIw
CwYDVR0PBAQDAgeAMA0GCSqGSIb3DQEBCwUAA4IBAQBrdT+i3DOa+pY93rWU4Hbi
KW7Q/lIoS9hq6oYVKQRWMuDTexh6uP0j0DbJ/S42nSbdPvsDJo4uSml4CmRR8pU5
6mHeDn6aAPeFfhvGn/FX05wbkKXINoBcX/QZfnBb9Nn0W73o9blap3pfzU/5sKOi
7Yrc8BwZhRfT+FAw+N1Me2xqEUbBSCdT8BgzeJK+4eBmei+A0bkyb9Kf7Mn7sTUn
Tw6BJ2ljao2sr8VAe1oiBWEgUN2P1hMUJgmK4MDFhyQhsco5JSTW+SLO5ysH3APv
TG1YjgyP7+bZbQhqVoc5kd6L18gHE4jL6Wbu9dkGrryeAktXJYCmvJQnbutq72UB
-----END CERTIFICATE-----
